target datalayout = "e-m:e-p270:32:32-p271:32:32-p272:64:64-i64:64-i128:128-f80:128-n8:16:32:64-S128"
target triple = "x86_64-pc-linux-gnu"

%struct.anon = type { i32, i32 }

@.str.5 = private unnamed_addr constant [27 x i8] c"../openssl/test/rsa_test.c\00", align 1
@test_rsa_security_bit.vals = internal constant [8 x i8] c"\80\01\02\04\08\10 @", align 1
@.str.11 = private unnamed_addr constant [4 x i8] c"key\00", align 1
@.str.12 = private unnamed_addr constant [6 x i8] c"bytes\00", align 1
@.str.13 = private unnamed_addr constant [17 x i8] c"(int)sizeof(num)\00", align 1
@.str.14 = private unnamed_addr constant [82 x i8] c"RSA_set0_key(key, BN_bin2bn(num, bytes, NULL), BN_bin2bn(num, bytes, NULL), NULL)\00", align 1
@.str.15 = private unnamed_addr constant [23 x i8] c"RSA_security_bits(key)\00", align 1
@.str.16 = private unnamed_addr constant [7 x i8] c"result\00", align 1

; Function Attrs: nounwind uwtable
define internal i32 @test_rsa_security_bit(i32 noundef %0) #0 {
  %2 = alloca i32, align 4
  %3 = alloca ptr, align 8
  %4 = alloca i32, align 4
  %5 = alloca i32, align 4
  %6 = alloca i32, align 4
  %7 = alloca i32, align 4
  %8 = alloca [2000 x i8], align 16
  store i32 %0, ptr %2, align 4, !tbaa !4
  call void @llvm.lifetime.start.p0(i64 8, ptr %3) #5
  %9 = call ptr @RSA_new()
  store ptr %9, ptr %3, align 8, !tbaa !8
  call void @llvm.lifetime.start.p0(i64 4, ptr %4) #5
  %10 = load i32, ptr %2, align 4, !tbaa !4
  %11 = sext i32 %10 to i64
  %12 = getelementptr inbounds [17 x %struct.anon], ptr @rsa_security_bits_cases, i64 0, i64 %11
  %13 = getelementptr inbounds nuw %struct.anon, ptr %12, i32 0, i32 0
  %14 = load i32, ptr %13, align 8, !tbaa !15
  store i32 %14, ptr %4, align 4, !tbaa !4
  call void @llvm.lifetime.start.p0(i64 4, ptr %5) #5
  %15 = load i32, ptr %2, align 4, !tbaa !4
  %16 = sext i32 %15 to i64
  %17 = getelementptr inbounds [17 x %struct.anon], ptr @rsa_security_bits_cases, i64 0, i64 %16
  %18 = getelementptr inbounds nuw %struct.anon, ptr %17, i32 0, i32 1
  %19 = load i32, ptr %18, align 4, !tbaa !17
  store i32 %19, ptr %5, align 4, !tbaa !4
  call void @llvm.lifetime.start.p0(i64 4, ptr %6) #5
  %20 = load i32, ptr %4, align 4, !tbaa !4
  %21 = add nsw i32 %20, 7
  %22 = sdiv i32 %21, 8
  store i32 %22, ptr %6, align 4, !tbaa !4
  call void @llvm.lifetime.start.p0(i64 4, ptr %7) #5
  store i32 0, ptr %7, align 4, !tbaa !4
  call void @llvm.lifetime.start.p0(i64 2000, ptr %8) #5
  %23 = load ptr, ptr %3, align 8, !tbaa !8
  %24 = call i32 @test_ptr(ptr noundef @.str.5, i32 noundef 369, ptr noundef @.str.11, ptr noundef %23)
  %25 = icmp ne i32 %24, 0
  br i1 %25, label %26, label %30

26:                                               ; preds = %1
  %27 = load i32, ptr %6, align 4, !tbaa !4
  %28 = call i32 @test_int_le(ptr noundef @.str.5, i32 noundef 369, ptr noundef @.str.12, ptr noundef @.str.13, i32 noundef %27, i32 noundef 2000)
  %29 = icmp ne i32 %28, 0
  br i1 %29, label %31, label %30

30:                                               ; preds = %26, %1
  br label %62

31:                                               ; preds = %26
  %32 = getelementptr inbounds [2000 x i8], ptr %8, i64 0, i64 0
  %33 = load i32, ptr %4, align 4, !tbaa !4
  %34 = srem i32 %33, 8
  %35 = sext i32 %34 to i64
  %36 = getelementptr inbounds [8 x i8], ptr @test_rsa_security_bit.vals, i64 0, i64 %35
  %37 = load i8, ptr %36, align 1, !tbaa !11
  %38 = zext i8 %37 to i32
  %39 = trunc i32 %38 to i8
  %40 = load i32, ptr %6, align 4, !tbaa !4
  %41 = sext i32 %40 to i64
  call void @llvm.memset.p0.i64(ptr align 16 %32, i8 %39, i64 %41, i1 false)
  %42 = load ptr, ptr %3, align 8, !tbaa !8
  %43 = getelementptr inbounds [2000 x i8], ptr %8, i64 0, i64 0
  %44 = load i32, ptr %6, align 4, !tbaa !4
  %45 = call ptr @BN_bin2bn(ptr noundef %43, i32 noundef %44, ptr noundef null)
  %46 = getelementptr inbounds [2000 x i8], ptr %8, i64 0, i64 0
  %47 = load i32, ptr %6, align 4, !tbaa !4
  %48 = call ptr @BN_bin2bn(ptr noundef %46, i32 noundef %47, ptr noundef null)
  %49 = call i32 @RSA_set0_key(ptr noundef %42, ptr noundef %45, ptr noundef %48, ptr noundef null)
  %50 = icmp ne i32 %49, 0
  %51 = zext i1 %50 to i32
  %52 = call i32 @test_true(ptr noundef @.str.5, i32 noundef 386, ptr noundef @.str.14, i32 noundef %51)
  %53 = icmp ne i32 %52, 0
  br i1 %53, label %54, label %61

54:                                               ; preds = %31
  %55 = load ptr, ptr %3, align 8, !tbaa !8
  %56 = call i32 @RSA_security_bits(ptr noundef %55)
  %57 = load i32, ptr %5, align 4, !tbaa !4
  %58 = call i32 @test_uint_eq(ptr noundef @.str.5, i32 noundef 387, ptr noundef @.str.15, ptr noundef @.str.16, i32 noundef %56, i32 noundef %57)
  %59 = icmp ne i32 %58, 0
  br i1 %59, label %60, label %61

60:                                               ; preds = %54
  store i32 1, ptr %7, align 4, !tbaa !4
  br label %61

61:                                               ; preds = %60, %54, %31
  br label %62

62:                                               ; preds = %61, %30
  %63 = load ptr, ptr %3, align 8, !tbaa !8
  call void @RSA_free(ptr noundef %63)
  %64 = load i32, ptr %7, align 4, !tbaa !4
  call void @llvm.lifetime.end.p0(i64 2000, ptr %8) #5
  call void @llvm.lifetime.end.p0(i64 4, ptr %7) #5
  call void @llvm.lifetime.end.p0(i64 4, ptr %6) #5
  call void @llvm.lifetime.end.p0(i64 4, ptr %5) #5
  call void @llvm.lifetime.end.p0(i64 4, ptr %4) #5
  call void @llvm.lifetime.end.p0(i64 8, ptr %3) #5
  ret i32 %64
}