; Function Attrs: nounwind uwtable
define internal range(i32 0, 2) i32 @test_rsa_security_bit(i32 noundef %0) #0 {
  %2 = alloca [2000 x i8], align 16
  %3 = tail call ptr @RSA_new() #5
  %4 = sext i32 %0 to i64
  %5 = getelementptr inbounds [17 x %struct.anon], ptr @rsa_security_bits_cases, i64 0, i64 %4
  %6 = load i32, ptr %5, align 8, !tbaa !15
  %7 = getelementptr inbounds nuw i8, ptr %5, i64 4
  %8 = load i32, ptr %7, align 4, !tbaa !17
  %9 = add nsw i32 %6, 7
  %10 = sdiv i32 %9, 8
  call void @llvm.lifetime.start.p0(i64 2000, ptr nonnull %2) #5
  %11 = tail call i32 @test_ptr(ptr noundef nonnull @.str.5, i32 noundef 369, ptr noundef nonnull @.str.11, ptr noundef %3) #5
  %.not = icmp eq i32 %11, 0
  br i1 %.not, label %29, label %12

12:                                               ; preds = %1
  %13 = tail call i32 @test_int_le(ptr noundef nonnull @.str.5, i32 noundef 369, ptr noundef nonnull @.str.12, ptr noundef nonnull @.str.13, i32 noundef %10, i32 noundef 2000) #5
  %.not13 = icmp eq i32 %13, 0
  br i1 %.not13, label %29, label %14

14:                                               ; preds = %12
  %15 = srem i32 %6, 8
  %16 = sext i32 %15 to i64
  %17 = getelementptr inbounds [8 x i8], ptr @test_rsa_security_bit.vals, i64 0, i64 %16
  %18 = load i8, ptr %17, align 1, !tbaa !11
  %19 = sext i32 %10 to i64
  call void @llvm.memset.p0.i64(ptr nonnull align 16 %2, i8 %18, i64 %19, i1 false)
  %20 = call ptr @BN_bin2bn(ptr noundef nonnull %2, i32 noundef %10, ptr noundef null) #5
  %21 = call ptr @BN_bin2bn(ptr noundef nonnull %2, i32 noundef %10, ptr noundef null) #5
  %22 = call i32 @RSA_set0_key(ptr noundef %3, ptr noundef %20, ptr noundef %21, ptr noundef null) #5
  %23 = icmp ne i32 %22, 0
  %24 = zext i1 %23 to i32
  %25 = call i32 @test_true(ptr noundef nonnull @.str.5, i32 noundef 386, ptr noundef nonnull @.str.14, i32 noundef %24) #5
  %.not14 = icmp eq i32 %25, 0
  br i1 %.not14, label %29, label %26

26:                                               ; preds = %14
  %27 = call i32 @RSA_security_bits(ptr noundef %3) #5
  %28 = call i32 @test_uint_eq(ptr noundef nonnull @.str.5, i32 noundef 387, ptr noundef nonnull @.str.15, ptr noundef nonnull @.str.16, i32 noundef %27, i32 noundef %8) #5
  %.not15 = icmp ne i32 %28, 0
  %spec.select = zext i1 %.not15 to i32
  br label %29

29:                                               ; preds = %26, %14, %1, %12
  %.0 = phi i32 [ 0, %14 ], [ 0, %12 ], [ 0, %1 ], [ %spec.select, %26 ]
  call void @RSA_free(ptr noundef %3) #5
  call void @llvm.lifetime.end.p0(i64 2000, ptr nonnull %2) #5
  ret i32 %.0
}